; ModuleID = '33/2551.c'
source_filename = "33/2551.c"
target datalayout = "e-m:e-p270:32:32-p271:32:32-p272:64:64-i64:64-f80:128-n8:16:32:64-S128"
target triple = "x86_64-pc-linux-gnu"

@.str = private unnamed_addr constant [3 x i8] c"%d\00", align 1
@.str.1 = private unnamed_addr constant [4 x i8] c"%s\0A\00", align 1

; Function Attrs: noinline nounwind uwtable
define dso_local i32 @main() #0 {
  %1 = alloca i32, align 4
  %2 = alloca [1000 x [1000 x i8]], align 16
  %3 = alloca [1000 x [1000 x i8]], align 16
  %4 = alloca i32, align 4
  %5 = alloca i32, align 4
  %6 = alloca i32, align 4
  %7 = alloca i32, align 4
  store i32 0, i32* %1, align 4
  %8 = call i32 (i8*, ...) @__isoc99_scanf(i8* getelementptr inbounds ([3 x i8], [3 x i8]* @.str, i64 0, i64 0), i32* %4)
  store i32 0, i32* %5, align 4
  br label %9

9:                                                ; preds = %20, %0
  %10 = load i32, i32* %5, align 4
  %11 = load i32, i32* %4, align 4
  %12 = sub nsw i32 %11, 1
  %13 = icmp sle i32 %10, %12
  br i1 %13, label %14, label %23

14:                                               ; preds = %9
  %15 = load i32, i32* %5, align 4
  %16 = sext i32 %15 to i64
  %17 = getelementptr inbounds [1000 x [1000 x i8]], [1000 x [1000 x i8]]* %2, i64 0, i64 %16
  %18 = getelementptr inbounds [1000 x i8], [1000 x i8]* %17, i64 0, i64 0
  %19 = call i32 (i8*, ...) @__isoc99_scanf(i8* getelementptr inbounds ([4 x i8], [4 x i8]* @.str.1, i64 0, i64 0), i8* %18)
  br label %20

20:                                               ; preds = %14
  %21 = load i32, i32* %5, align 4
  %22 = add nsw i32 %21, 1
  store i32 %22, i32* %5, align 4
  br label %9

23:                                               ; preds = %9
  store i32 0, i32* %5, align 4
  br label %24

24:                                               ; preds = %113, %23
  %25 = load i32, i32* %5, align 4
  %26 = load i32, i32* %4, align 4
  %27 = sub nsw i32 %26, 1
  %28 = icmp sle i32 %25, %27
  br i1 %28, label %29, label %116

29:                                               ; preds = %24
  store i32 0, i32* %6, align 4
  br label %30

30:                                               ; preds = %109, %29
  %31 = load i32, i32* %5, align 4
  %32 = sext i32 %31 to i64
  %33 = getelementptr inbounds [1000 x [1000 x i8]], [1000 x [1000 x i8]]* %2, i64 0, i64 %32
  %34 = load i32, i32* %6, align 4
  %35 = sext i32 %34 to i64
  %36 = getelementptr inbounds [1000 x i8], [1000 x i8]* %33, i64 0, i64 %35
  %37 = load i8, i8* %36, align 1
  %38 = sext i8 %37 to i32
  %39 = icmp ne i32 %38, 0
  br i1 %39, label %40, label %112

40:                                               ; preds = %30
  %41 = load i32, i32* %5, align 4
  %42 = sext i32 %41 to i64
  %43 = getelementptr inbounds [1000 x [1000 x i8]], [1000 x [1000 x i8]]* %2, i64 0, i64 %42
  %44 = load i32, i32* %6, align 4
  %45 = sext i32 %44 to i64
  %46 = getelementptr inbounds [1000 x i8], [1000 x i8]* %43, i64 0, i64 %45
  %47 = load i8, i8* %46, align 1
  %48 = sext i8 %47 to i32
  %49 = icmp eq i32 %48, 65
  br i1 %49, label %50, label %57

50:                                               ; preds = %40
  %51 = load i32, i32* %5, align 4
  %52 = sext i32 %51 to i64
  %53 = getelementptr inbounds [1000 x [1000 x i8]], [1000 x [1000 x i8]]* %3, i64 0, i64 %52
  %54 = load i32, i32* %6, align 4
  %55 = sext i32 %54 to i64
  %56 = getelementptr inbounds [1000 x i8], [1000 x i8]* %53, i64 0, i64 %55
  store i8 84, i8* %56, align 1
  br label %57

57:                                               ; preds = %50, %40
  %58 = load i32, i32* %5, align 4
  %59 = sext i32 %58 to i64
  %60 = getelementptr inbounds [1000 x [1000 x i8]], [1000 x [1000 x i8]]* %2, i64 0, i64 %59
  %61 = load i32, i32* %6, align 4
  %62 = sext i32 %61 to i64
  %63 = getelementptr inbounds [1000 x i8], [1000 x i8]* %60, i64 0, i64 %62
  %64 = load i8, i8* %63, align 1
  %65 = sext i8 %64 to i32
  %66 = icmp eq i32 %65, 84
  br i1 %66, label %67, label %74

67:                                               ; preds = %57
  %68 = load i32, i32* %5, align 4
  %69 = sext i32 %68 to i64
  %70 = getelementptr inbounds [1000 x [1000 x i8]], [1000 x [1000 x i8]]* %3, i64 0, i64 %69
  %71 = load i32, i32* %6, align 4
  %72 = sext i32 %71 to i64
  %73 = getelementptr inbounds [1000 x i8], [1000 x i8]* %70, i64 0, i64 %72
  store i8 65, i8* %73, align 1
  br label %74

74:                                               ; preds = %67, %57
  %75 = load i32, i32* %5, align 4
  %76 = sext i32 %75 to i64
  %77 = getelementptr inbounds [1000 x [1000 x i8]], [1000 x [1000 x i8]]* %2, i64 0, i64 %76
  %78 = load i32, i32* %6, align 4
  %79 = sext i32 %78 to i64
  %80 = getelementptr inbounds [1000 x i8], [1000 x i8]* %77, i64 0, i64 %79
  %81 = load i8, i8* %80, align 1
  %82 = sext i8 %81 to i32
  %83 = icmp eq i32 %82, 67
  br i1 %83, label %84, label %91

84:                                               ; preds = %74
  %85 = load i32, i32* %5, align 4
  %86 = sext i32 %85 to i64
  %87 = getelementptr inbounds [1000 x [1000 x i8]], [1000 x [1000 x i8]]* %3, i64 0, i64 %86
  %88 = load i32, i32* %6, align 4
  %89 = sext i32 %88 to i64
  %90 = getelementptr inbounds [1000 x i8], [1000 x i8]* %87, i64 0, i64 %89
  store i8 71, i8* %90, align 1
  br label %91

91:                                               ; preds = %84, %74
  %92 = load i32, i32* %5, align 4
  %93 = sext i32 %92 to i64
  %94 = getelementptr inbounds [1000 x [1000 x i8]], [1000 x [1000 x i8]]* %2, i64 0, i64 %93
  %95 = load i32, i32* %6, align 4
  %96 = sext i32 %95 to i64
  %97 = getelementptr inbounds [1000 x i8], [1000 x i8]* %94, i64 0, i64 %96
  %98 = load i8, i8* %97, align 1
  %99 = sext i8 %98 to i32
  %100 = icmp eq i32 %99, 71
  br i1 %100, label %101, label %108

101:                                              ; preds = %91
  %102 = load i32, i32* %5, align 4
  %103 = sext i32 %102 to i64
  %104 = getelementptr inbounds [1000 x [1000 x i8]], [1000 x [1000 x i8]]* %3, i64 0, i64 %103
  %105 = load i32, i32* %6, align 4
  %106 = sext i32 %105 to i64
  %107 = getelementptr inbounds [1000 x i8], [1000 x i8]* %104, i64 0, i64 %106
  store i8 67, i8* %107, align 1
  br label %108

108:                                              ; preds = %101, %91
  br label %109

109:                                              ; preds = %108
  %110 = load i32, i32* %6, align 4
  %111 = add nsw i32 %110, 1
  store i32 %111, i32* %6, align 4
  br label %30

112:                                              ; preds = %30
  br label %113

113:                                              ; preds = %112
  %114 = load i32, i32* %5, align 4
  %115 = add nsw i32 %114, 1
  store i32 %115, i32* %5, align 4
  br label %24

116:                                              ; preds = %24
  store i32 0, i32* %5, align 4
  br label %117

117:                                              ; preds = %128, %116
  %118 = load i32, i32* %5, align 4
  %119 = load i32, i32* %4, align 4
  %120 = sub nsw i32 %119, 1
  %121 = icmp sle i32 %118, %120
  br i1 %121, label %122, label %131

122:                                              ; preds = %117
  %123 = load i32, i32* %5, align 4
  %124 = sext i32 %123 to i64
  %125 = getelementptr inbounds [1000 x [1000 x i8]], [1000 x [1000 x i8]]* %3, i64 0, i64 %124
  %126 = getelementptr inbounds [1000 x i8], [1000 x i8]* %125, i64 0, i64 0
  %127 = call i32 (i8*, ...) @printf(i8* getelementptr inbounds ([4 x i8], [4 x i8]* @.str.1, i64 0, i64 0), i8* %126)
  br label %128

128:                                              ; preds = %122
  %129 = load i32, i32* %5, align 4
  %130 = add nsw i32 %129, 1
  store i32 %130, i32* %5, align 4
  br label %117

131:                                              ; preds = %117
  ret i32 0
}

declare dso_local i32 @__isoc99_scanf(i8*, ...) #1

declare dso_local i32 @printf(i8*, ...) #1


!llvm.module.flags = !{!0}
!llvm.ident = !{!1}

!0 = !{i32 1, !"wchar_size", i32 4}
!1 = !{!"clang version 10.0.0-4ubuntu1 "}
